target datalayout = "e-m:e-p270:32:32-p271:32:32-p272:64:64-i64:64-i128:128-f80:128-n8:16:32:64-S128"
target triple = "x86_64-unknown-linux-gnu"

; Function Attrs: nounwind uwtable
define hidden i32 @buferror(i32 noundef %err, ptr noundef %buf, i64 noundef %buflen) #0 {
entry:
  %err.addr = alloca i32, align 4
  %buf.addr = alloca ptr, align 8
  %buflen.addr = alloca i64, align 8
  %b = alloca ptr, align 8
  store i32 %err, ptr %err.addr, align 4
  store ptr %buf, ptr %buf.addr, align 8
  store i64 %buflen, ptr %buflen.addr, align 8
  %0 = load i32, ptr %err.addr, align 4
  %1 = load ptr, ptr %buf.addr, align 8
  %2 = load i64, ptr %buflen.addr, align 8
  %call = call ptr @strerror_r(i32 noundef %0, ptr noundef %1, i64 noundef %2) #8
  store ptr %call, ptr %b, align 8
  %3 = load ptr, ptr %b, align 8
  %4 = load ptr, ptr %buf.addr, align 8
  %cmp = icmp ne ptr %3, %4
  br i1 %cmp, label %if.then, label %if.end

if.then:                                          ; preds = %entry
  %5 = load ptr, ptr %buf.addr, align 8
  %6 = load ptr, ptr %b, align 8
  %7 = load i64, ptr %buflen.addr, align 8
  %call1 = call ptr @strncpy(ptr noundef %5, ptr noundef %6, i64 noundef %7) #8
  %8 = load ptr, ptr %buf.addr, align 8
  %9 = load i64, ptr %buflen.addr, align 8
  %sub = sub i64 %9, 1
  %arrayidx = getelementptr inbounds i8, ptr %8, i64 %sub
  store i8 0, ptr %arrayidx, align 1
  br label %if.end

if.end:                                           ; preds = %if.then, %entry
  ret i32 0
}