; Function Attrs: nounwind uwtable
define hidden noundef i32 @buferror(i32 noundef %err, ptr noundef %buf, i64 noundef %buflen) local_unnamed_addr #0 {
entry:
  %call = tail call ptr @strerror_r(i32 noundef %err, ptr noundef %buf, i64 noundef %buflen) #13
  %cmp.not = icmp eq ptr %call, %buf
  br i1 %cmp.not, label %if.end, label %if.then

if.then:                                          ; preds = %entry
  %call1 = tail call ptr @strncpy(ptr noundef %buf, ptr noundef %call, i64 noundef %buflen) #13
  %0 = getelementptr i8, ptr %buf, i64 %buflen
  %arrayidx = getelementptr i8, ptr %0, i64 -1
  store i8 0, ptr %arrayidx, align 1
  br label %if.end

if.end:                                           ; preds = %if.then, %entry
  ret i32 0
}